; Function Attrs: mustprogress uwtable
define hidden noundef ptr @_Z33pj_projection_specific_setup_sinuP8PJconsts(ptr noundef %0) local_unnamed_addr #0 {
  %2 = tail call noalias dereferenceable_or_null(40) ptr @calloc(i64 noundef 1, i64 noundef 40) #6
  %3 = icmp eq ptr %2, null
  br i1 %3, label %4, label %6

4:                                                ; preds = %1
  %5 = tail call noundef ptr @_Z21pj_default_destructorP8PJconstsi(ptr noundef %0, i32 noundef 4096)
  br label %37

6:                                                ; preds = %1
  %7 = getelementptr inbounds nuw i8, ptr %0, i64 88
  store ptr %2, ptr %7, align 8, !tbaa !40
  %8 = getelementptr inbounds nuw i8, ptr %0, i64 152
  store ptr @_ZL21pj_gn_sinu_destructorP8PJconstsi, ptr %8, align 8, !tbaa !41
  %9 = getelementptr inbounds nuw i8, ptr %0, i64 288
  %10 = load double, ptr %9, align 8, !tbaa !42
  %11 = tail call noundef ptr @_Z7pj_enfnd(double noundef %10)
  store ptr %11, ptr %2, align 8, !tbaa !43
  %.not = icmp eq ptr %11, null
  br i1 %.not, label %12, label %14

12:                                               ; preds = %6
  %13 = tail call noundef ptr @_Z21pj_default_destructorP8PJconstsi(ptr noundef nonnull %0, i32 noundef 4096)
  br label %37

14:                                               ; preds = %6
  %15 = getelementptr inbounds nuw i8, ptr %0, i64 216
  %16 = load double, ptr %15, align 8, !tbaa !46
  %17 = fcmp une double %16, 0.000000e+00
  br i1 %17, label %18, label %21

18:                                               ; preds = %14
  %19 = getelementptr inbounds nuw i8, ptr %0, i64 112
  store ptr @_ZL17gn_sinu_e_inverse5PJ_XYP8PJconsts, ptr %19, align 8, !tbaa !47
  %20 = getelementptr inbounds nuw i8, ptr %0, i64 104
  store ptr @_ZL17gn_sinu_e_forward5PJ_LPP8PJconsts, ptr %20, align 8, !tbaa !48
  br label %37

21:                                               ; preds = %14
  %22 = getelementptr inbounds nuw i8, ptr %2, i64 16
  store double 1.000000e+00, ptr %22, align 8, !tbaa !49
  %23 = getelementptr inbounds nuw i8, ptr %2, i64 8
  store double 0.000000e+00, ptr %23, align 8, !tbaa !50
  %24 = load ptr, ptr %7, align 8, !tbaa !40
  store double 0.000000e+00, ptr %15, align 8, !tbaa !46
  %25 = getelementptr inbounds nuw i8, ptr %0, i64 112
  store ptr @_ZL17gn_sinu_s_inverse5PJ_XYP8PJconsts, ptr %25, align 8, !tbaa !47
  %26 = getelementptr inbounds nuw i8, ptr %0, i64 104
  store ptr @_ZL17gn_sinu_s_forward5PJ_LPP8PJconsts, ptr %26, align 8, !tbaa !48
  %27 = getelementptr inbounds nuw i8, ptr %24, i64 8
  %28 = load double, ptr %27, align 8, !tbaa !50
  %29 = fadd double %28, 1.000000e+00
  %30 = getelementptr inbounds nuw i8, ptr %24, i64 16
  %31 = load double, ptr %30, align 8, !tbaa !49
  %32 = fdiv double %29, %31
  %33 = tail call double @sqrt(double noundef %32) #7, !tbaa !51
  %34 = getelementptr inbounds nuw i8, ptr %24, i64 32
  store double %33, ptr %34, align 8, !tbaa !52
  %35 = fdiv double %33, %29
  %36 = getelementptr inbounds nuw i8, ptr %24, i64 24
  store double %35, ptr %36, align 8, !tbaa !53
  br label %37

37:                                               ; preds = %18, %21, %12, %4
  %.0 = phi ptr [ %5, %4 ], [ %13, %12 ], [ %0, %21 ], [ %0, %18 ]
  ret ptr %.0
}